target datalayout = "e-m:e-p270:32:32-p271:32:32-p272:64:64-i64:64-i128:128-f80:128-n8:16:32:64-S128"
target triple = "x86_64-pc-linux-gnu"

; Function Attrs: mustprogress uwtable
define void @_Z19duDebugDrawCylinderP11duDebugDrawffffffj(ptr noundef %0, float noundef %1, float noundef %2, float noundef %3, float noundef %4, float noundef %5, float noundef %6, i32 noundef %7) #2 {
  %9 = alloca ptr, align 8
  %10 = alloca float, align 4
  %11 = alloca float, align 4
  %12 = alloca float, align 4
  %13 = alloca float, align 4
  %14 = alloca float, align 4
  %15 = alloca float, align 4
  %16 = alloca i32, align 4
  store ptr %0, ptr %9, align 8
  store float %1, ptr %10, align 4
  store float %2, ptr %11, align 4
  store float %3, ptr %12, align 4
  store float %4, ptr %13, align 4
  store float %5, ptr %14, align 4
  store float %6, ptr %15, align 4
  store i32 %7, ptr %16, align 4
  %17 = load ptr, ptr %9, align 8
  %18 = icmp ne ptr %17, null
  br i1 %18, label %20, label %19

19:                                               ; preds = %8
  br label %37

20:                                               ; preds = %8
  %21 = load ptr, ptr %9, align 8
  %22 = load ptr, ptr %21, align 8
  %23 = getelementptr inbounds ptr, ptr %22, i64 4
  %24 = load ptr, ptr %23, align 8
  call void %24(ptr noundef nonnull align 8 dereferenceable(8) %21, i32 noundef 2, float noundef 1.000000e+00)
  %25 = load ptr, ptr %9, align 8
  %26 = load float, ptr %10, align 4
  %27 = load float, ptr %11, align 4
  %28 = load float, ptr %12, align 4
  %29 = load float, ptr %13, align 4
  %30 = load float, ptr %14, align 4
  %31 = load float, ptr %15, align 4
  %32 = load i32, ptr %16, align 4
  call void @_Z16duAppendCylinderP11duDebugDrawffffffj(ptr noundef %25, float noundef %26, float noundef %27, float noundef %28, float noundef %29, float noundef %30, float noundef %31, i32 noundef %32)
  %33 = load ptr, ptr %9, align 8
  %34 = load ptr, ptr %33, align 8
  %35 = getelementptr inbounds ptr, ptr %34, i64 9
  %36 = load ptr, ptr %35, align 8
  call void %36(ptr noundef nonnull align 8 dereferenceable(8) %33)
  br label %37

37:                                               ; preds = %20, %19
  ret void
}